target datalayout = "e-m:e-p270:32:32-p271:32:32-p272:64:64-i64:64-i128:128-f80:128-n8:16:32:64-S128"
target triple = "x86_64-unknown-linux-gnu"

%"class.net::QuicConfigValue" = type { ptr, i32, i32 }
%"class.net::QuicNegotiableValue" = type <{ %"class.net::QuicConfigValue", i8, [7 x i8] }>
%"class.net::QuicNegotiableUint32" = type { %"class.net::QuicNegotiableValue.base", i32, i32, i32 }
%"class.net::QuicNegotiableValue.base" = type <{ %"class.net::QuicConfigValue", i8 }>
%"class.std::vector" = type { %"struct.std::_Vector_base" }
%"struct.std::_Vector_base" = type { %"struct.std::_Vector_base<unsigned int, std::allocator<unsigned int>>::_Vector_impl" }
%"struct.std::_Vector_base<unsigned int, std::allocator<unsigned int>>::_Vector_impl" = type { %"struct.std::_Vector_base<unsigned int, std::allocator<unsigned int>>::_Vector_impl_data" }
%"struct.std::_Vector_base<unsigned int, std::allocator<unsigned int>>::_Vector_impl_data" = type { ptr, ptr, ptr }
%"class.net::QuicFixedUint32" = type <{ %"class.net::QuicConfigValue", i32, i8, [3 x i8], i32, i8, [3 x i8] }>
%"class.net::QuicFixedTagVector" = type <{ %"class.net::QuicConfigValue", %"class.std::vector", i8, [7 x i8], %"class.std::vector", i8, [7 x i8] }>
%"class.net::QuicFixedIPEndPoint" = type <{ %"class.net::QuicConfigValue", %"class.net::IPEndPoint", i8, [7 x i8], %"class.net::IPEndPoint", i8, [7 x i8] }>
%"class.net::IPEndPoint" = type <{ %"class.net::IPAddress", i16, [6 x i8] }>
%"class.net::IPAddress" = type { %"class.std::vector.8" }
%"class.std::vector.8" = type { %"struct.std::_Vector_base.9" }
%"struct.std::_Vector_base.9" = type { %"struct.std::_Vector_base<unsigned char, std::allocator<unsigned char>>::_Vector_impl" }
%"struct.std::_Vector_base<unsigned char, std::allocator<unsigned char>>::_Vector_impl" = type { %"struct.std::_Vector_base<unsigned char, std::allocator<unsigned char>>::_Vector_impl_data" }
%"struct.std::_Vector_base<unsigned char, std::allocator<unsigned char>>::_Vector_impl_data" = type { ptr, ptr, ptr }
%"class.net::QuicConfig" = type { %"class.net::QuicTime::Delta", %"class.net::QuicTime::Delta", i64, %"class.net::QuicFixedTagVector", %"class.net::QuicNegotiableUint32", %"class.net::QuicNegotiableUint32", %"class.net::QuicNegotiableUint32", %"class.net::QuicFixedUint32", %"class.net::QuicFixedUint32", %"class.net::QuicFixedUint32", %"class.net::QuicFixedUint32", %"class.net::QuicFixedUint32", %"class.net::QuicFixedUint32", %"class.net::QuicNegotiableUint32", %"class.net::QuicFixedUint32", %"class.net::QuicFixedIPEndPoint", %"class.net::QuicFixedUint32" }
%"class.net::QuicTime::Delta" = type { %"class.base::TimeDelta", i64 }
%"class.base::TimeDelta" = type { i64 }

; Function Attrs: mustprogress nounwind uwtable
define linkonce_odr dso_local noundef zeroext i1 @_ZNK3net19QuicNegotiableValue10negotiatedEv(ptr noundef nonnull align 8 dereferenceable(17) %this) #3 comdat align 2 {
entry:
  %this.addr = alloca ptr, align 8
  store ptr %this, ptr %this.addr, align 8
  %this1 = load ptr, ptr %this.addr, align 8
  %negotiated_ = getelementptr inbounds %"class.net::QuicNegotiableValue", ptr %this1, i32 0, i32 1
  %0 = load i8, ptr %negotiated_, align 8
  %tobool = trunc i8 %0 to i1
  ret i1 %tobool
}

; Function Attrs: mustprogress uwtable
define dso_local void @_ZNK3net18QuicFixedTagVector18ToHandshakeMessageEPNS_22CryptoHandshakeMessageE(ptr noundef nonnull align 8 dereferenceable(73) %this, ptr noundef %out) unnamed_addr #0 align 2 {
entry:
  %this.addr = alloca ptr, align 8
  %out.addr = alloca ptr, align 8
  store ptr %this, ptr %this.addr, align 8
  store ptr %out, ptr %out.addr, align 8
  %this1 = load ptr, ptr %this.addr, align 8
  %has_send_values_ = getelementptr inbounds %"class.net::QuicFixedTagVector", ptr %this1, i32 0, i32 2
  %0 = load i8, ptr %has_send_values_, align 8
  %tobool = trunc i8 %0 to i1
  br i1 %tobool, label %if.then, label %if.end

if.then:                                          ; preds = %entry
  %1 = load ptr, ptr %out.addr, align 8
  %tag_ = getelementptr inbounds %"class.net::QuicConfigValue", ptr %this1, i32 0, i32 1
  %2 = load i32, ptr %tag_, align 8
  %send_values_ = getelementptr inbounds %"class.net::QuicFixedTagVector", ptr %this1, i32 0, i32 1
  call void @_ZN3net22CryptoHandshakeMessage9SetVectorIjEEvjRKSt6vectorIT_SaIS3_EE(ptr noundef nonnull align 8 dereferenceable(72) %1, i32 noundef %2, ptr noundef nonnull align 8 dereferenceable(24) %send_values_)
  br label %if.end

if.end:                                           ; preds = %if.then, %entry
  ret void
}

; Function Attrs: mustprogress uwtable
define dso_local void @_ZNK3net15QuicFixedUint3218ToHandshakeMessageEPNS_22CryptoHandshakeMessageE(ptr noundef nonnull align 8 dereferenceable(29) %this, ptr noundef %out) unnamed_addr #0 align 2 {
entry:
  %this.addr = alloca ptr, align 8
  %out.addr = alloca ptr, align 8
  store ptr %this, ptr %this.addr, align 8
  store ptr %out, ptr %out.addr, align 8
  %this1 = load ptr, ptr %this.addr, align 8
  %has_send_value_ = getelementptr inbounds %"class.net::QuicFixedUint32", ptr %this1, i32 0, i32 2
  %0 = load i8, ptr %has_send_value_, align 4
  %tobool = trunc i8 %0 to i1
  br i1 %tobool, label %if.then, label %if.end

if.then:                                          ; preds = %entry
  %1 = load ptr, ptr %out.addr, align 8
  %tag_ = getelementptr inbounds %"class.net::QuicConfigValue", ptr %this1, i32 0, i32 1
  %2 = load i32, ptr %tag_, align 8
  %send_value_ = getelementptr inbounds %"class.net::QuicFixedUint32", ptr %this1, i32 0, i32 1
  call void @_ZN3net22CryptoHandshakeMessage8SetValueIjEEvjRKT_(ptr noundef nonnull align 8 dereferenceable(72) %1, i32 noundef %2, ptr noundef nonnull align 4 dereferenceable(4) %send_value_)
  br label %if.end

if.end:                                           ; preds = %if.then, %entry
  ret void
}

; Function Attrs: mustprogress uwtable
define dso_local void @_ZNK3net20QuicNegotiableUint3218ToHandshakeMessageEPNS_22CryptoHandshakeMessageE(ptr noundef nonnull align 8 dereferenceable(32) %this, ptr noundef %out) unnamed_addr #0 align 2 {
entry:
  %this.addr = alloca ptr, align 8
  %out.addr = alloca ptr, align 8
  store ptr %this, ptr %this.addr, align 8
  store ptr %out, ptr %out.addr, align 8
  %this1 = load ptr, ptr %this.addr, align 8
  %call = call noundef zeroext i1 @_ZNK3net19QuicNegotiableValue10negotiatedEv(ptr noundef nonnull align 8 dereferenceable(17) %this1)
  br i1 %call, label %if.then, label %if.else

if.then:                                          ; preds = %entry
  %0 = load ptr, ptr %out.addr, align 8
  %tag_ = getelementptr inbounds %"class.net::QuicConfigValue", ptr %this1, i32 0, i32 1
  %1 = load i32, ptr %tag_, align 8
  %negotiated_value_ = getelementptr inbounds %"class.net::QuicNegotiableUint32", ptr %this1, i32 0, i32 3
  call void @_ZN3net22CryptoHandshakeMessage8SetValueIjEEvjRKT_(ptr noundef nonnull align 8 dereferenceable(72) %0, i32 noundef %1, ptr noundef nonnull align 4 dereferenceable(4) %negotiated_value_)
  br label %if.end

if.else:                                          ; preds = %entry
  %2 = load ptr, ptr %out.addr, align 8
  %tag_2 = getelementptr inbounds %"class.net::QuicConfigValue", ptr %this1, i32 0, i32 1
  %3 = load i32, ptr %tag_2, align 8
  %max_value_ = getelementptr inbounds %"class.net::QuicNegotiableUint32", ptr %this1, i32 0, i32 1
  call void @_ZN3net22CryptoHandshakeMessage8SetValueIjEEvjRKT_(ptr noundef nonnull align 8 dereferenceable(72) %2, i32 noundef %3, ptr noundef nonnull align 4 dereferenceable(4) %max_value_)
  br label %if.end

if.end:                                           ; preds = %if.else, %if.then
  ret void
}

; Function Attrs: mustprogress uwtable
define dso_local void @_ZNK3net10QuicConfig18ToHandshakeMessageEPNS_22CryptoHandshakeMessageE(ptr noundef nonnull align 8 dereferenceable(600) %this, ptr noundef %out) #0 align 2 {
entry:
  %this.addr = alloca ptr, align 8
  %out.addr = alloca ptr, align 8
  store ptr %this, ptr %this.addr, align 8
  store ptr %out, ptr %out.addr, align 8
  %this1 = load ptr, ptr %this.addr, align 8
  %idle_connection_state_lifetime_seconds_ = getelementptr inbounds %"class.net::QuicConfig", ptr %this1, i32 0, i32 4
  %0 = load ptr, ptr %out.addr, align 8
  call void @_ZNK3net20QuicNegotiableUint3218ToHandshakeMessageEPNS_22CryptoHandshakeMessageE(ptr noundef nonnull align 8 dereferenceable(32) %idle_connection_state_lifetime_seconds_, ptr noundef %0)
  %silent_close_ = getelementptr inbounds %"class.net::QuicConfig", ptr %this1, i32 0, i32 5
  %1 = load ptr, ptr %out.addr, align 8
  call void @_ZNK3net20QuicNegotiableUint3218ToHandshakeMessageEPNS_22CryptoHandshakeMessageE(ptr noundef nonnull align 8 dereferenceable(32) %silent_close_, ptr noundef %1)
  %max_streams_per_connection_ = getelementptr inbounds %"class.net::QuicConfig", ptr %this1, i32 0, i32 6
  %2 = load ptr, ptr %out.addr, align 8
  call void @_ZNK3net20QuicNegotiableUint3218ToHandshakeMessageEPNS_22CryptoHandshakeMessageE(ptr noundef nonnull align 8 dereferenceable(32) %max_streams_per_connection_, ptr noundef %2)
  %max_incoming_dynamic_streams_ = getelementptr inbounds %"class.net::QuicConfig", ptr %this1, i32 0, i32 7
  %3 = load ptr, ptr %out.addr, align 8
  call void @_ZNK3net15QuicFixedUint3218ToHandshakeMessageEPNS_22CryptoHandshakeMessageE(ptr noundef nonnull align 8 dereferenceable(29) %max_incoming_dynamic_streams_, ptr noundef %3)
  %bytes_for_connection_id_ = getelementptr inbounds %"class.net::QuicConfig", ptr %this1, i32 0, i32 8
  %4 = load ptr, ptr %out.addr, align 8
  call void @_ZNK3net15QuicFixedUint3218ToHandshakeMessageEPNS_22CryptoHandshakeMessageE(ptr noundef nonnull align 8 dereferenceable(29) %bytes_for_connection_id_, ptr noundef %4)
  %initial_round_trip_time_us_ = getelementptr inbounds %"class.net::QuicConfig", ptr %this1, i32 0, i32 9
  %5 = load ptr, ptr %out.addr, align 8
  call void @_ZNK3net15QuicFixedUint3218ToHandshakeMessageEPNS_22CryptoHandshakeMessageE(ptr noundef nonnull align 8 dereferenceable(29) %initial_round_trip_time_us_, ptr noundef %5)
  %initial_stream_flow_control_window_bytes_ = getelementptr inbounds %"class.net::QuicConfig", ptr %this1, i32 0, i32 10
  %6 = load ptr, ptr %out.addr, align 8
  call void @_ZNK3net15QuicFixedUint3218ToHandshakeMessageEPNS_22CryptoHandshakeMessageE(ptr noundef nonnull align 8 dereferenceable(29) %initial_stream_flow_control_window_bytes_, ptr noundef %6)
  %initial_session_flow_control_window_bytes_ = getelementptr inbounds %"class.net::QuicConfig", ptr %this1, i32 0, i32 11
  %7 = load ptr, ptr %out.addr, align 8
  call void @_ZNK3net15QuicFixedUint3218ToHandshakeMessageEPNS_22CryptoHandshakeMessageE(ptr noundef nonnull align 8 dereferenceable(29) %initial_session_flow_control_window_bytes_, ptr noundef %7)
  %socket_receive_buffer_ = getelementptr inbounds %"class.net::QuicConfig", ptr %this1, i32 0, i32 12
  %8 = load ptr, ptr %out.addr, align 8
  call void @_ZNK3net15QuicFixedUint3218ToHandshakeMessageEPNS_22CryptoHandshakeMessageE(ptr noundef nonnull align 8 dereferenceable(29) %socket_receive_buffer_, ptr noundef %8)
  %connection_migration_disabled_ = getelementptr inbounds %"class.net::QuicConfig", ptr %this1, i32 0, i32 14
  %9 = load ptr, ptr %out.addr, align 8
  call void @_ZNK3net15QuicFixedUint3218ToHandshakeMessageEPNS_22CryptoHandshakeMessageE(ptr noundef nonnull align 8 dereferenceable(29) %connection_migration_disabled_, ptr noundef %9)
  %connection_options_ = getelementptr inbounds %"class.net::QuicConfig", ptr %this1, i32 0, i32 3
  %10 = load ptr, ptr %out.addr, align 8
  call void @_ZNK3net18QuicFixedTagVector18ToHandshakeMessageEPNS_22CryptoHandshakeMessageE(ptr noundef nonnull align 8 dereferenceable(73) %connection_options_, ptr noundef %10)
  %alternate_server_address_ = getelementptr inbounds %"class.net::QuicConfig", ptr %this1, i32 0, i32 15
  %11 = load ptr, ptr %out.addr, align 8
  call void @_ZNK3net19QuicFixedIPEndPoint18ToHandshakeMessageEPNS_22CryptoHandshakeMessageE(ptr noundef nonnull align 8 dereferenceable(89) %alternate_server_address_, ptr noundef %11)
  %force_hol_blocking_ = getelementptr inbounds %"class.net::QuicConfig", ptr %this1, i32 0, i32 16
  %12 = load ptr, ptr %out.addr, align 8
  call void @_ZNK3net15QuicFixedUint3218ToHandshakeMessageEPNS_22CryptoHandshakeMessageE(ptr noundef nonnull align 8 dereferenceable(29) %force_hol_blocking_, ptr noundef %12)
  ret void
}