; Function Attrs: mustprogress uwtable
define dso_local void @_ZNK3net10QuicConfig18ToHandshakeMessageEPNS_22CryptoHandshakeMessageE(ptr noundef nonnull align 8 dereferenceable(600) %this, ptr noundef nonnull %out) local_unnamed_addr #0 align 2 {
entry:
  %idle_connection_state_lifetime_seconds_ = getelementptr inbounds i8, ptr %this, i64 120
  %negotiated_.i.i = getelementptr inbounds i8, ptr %this, i64 136
  %0 = load i8, ptr %negotiated_.i.i, align 8
  %1 = and i8 %0, 1
  %tobool.i.not.i = icmp eq i8 %1, 0
  %tag_2.i = getelementptr inbounds i8, ptr %this, i64 128
  %2 = load i32, ptr %tag_2.i, align 8
  %..i = select i1 %tobool.i.not.i, i64 20, i64 28
  %max_value_.i = getelementptr inbounds i8, ptr %idle_connection_state_lifetime_seconds_, i64 %..i
  tail call void @_ZN3net22CryptoHandshakeMessage8SetValueIjEEvjRKT_(ptr noundef nonnull align 8 dereferenceable(72) %out, i32 noundef %2, ptr noundef nonnull align 4 dereferenceable(4) %max_value_.i)
  %silent_close_ = getelementptr inbounds i8, ptr %this, i64 152
  %negotiated_.i.i13 = getelementptr inbounds i8, ptr %this, i64 168
  %3 = load i8, ptr %negotiated_.i.i13, align 8
  %4 = and i8 %3, 1
  %tobool.i.not.i14 = icmp eq i8 %4, 0
  %tag_2.i15 = getelementptr inbounds i8, ptr %this, i64 160
  %5 = load i32, ptr %tag_2.i15, align 8
  %..i16 = select i1 %tobool.i.not.i14, i64 20, i64 28
  %max_value_.i17 = getelementptr inbounds i8, ptr %silent_close_, i64 %..i16
  tail call void @_ZN3net22CryptoHandshakeMessage8SetValueIjEEvjRKT_(ptr noundef nonnull align 8 dereferenceable(72) %out, i32 noundef %5, ptr noundef nonnull align 4 dereferenceable(4) %max_value_.i17)
  %max_streams_per_connection_ = getelementptr inbounds i8, ptr %this, i64 184
  %negotiated_.i.i18 = getelementptr inbounds i8, ptr %this, i64 200
  %6 = load i8, ptr %negotiated_.i.i18, align 8
  %7 = and i8 %6, 1
  %tobool.i.not.i19 = icmp eq i8 %7, 0
  %tag_2.i20 = getelementptr inbounds i8, ptr %this, i64 192
  %8 = load i32, ptr %tag_2.i20, align 8
  %..i21 = select i1 %tobool.i.not.i19, i64 20, i64 28
  %max_value_.i22 = getelementptr inbounds i8, ptr %max_streams_per_connection_, i64 %..i21
  tail call void @_ZN3net22CryptoHandshakeMessage8SetValueIjEEvjRKT_(ptr noundef nonnull align 8 dereferenceable(72) %out, i32 noundef %8, ptr noundef nonnull align 4 dereferenceable(4) %max_value_.i22)
  %has_send_value_.i = getelementptr inbounds i8, ptr %this, i64 236
  %9 = load i8, ptr %has_send_value_.i, align 4
  %10 = and i8 %9, 1
  %tobool.not.i = icmp eq i8 %10, 0
  br i1 %tobool.not.i, label %_ZNK3net15QuicFixedUint3218ToHandshakeMessageEPNS_22CryptoHandshakeMessageE.exit, label %if.then.i

if.then.i:                                        ; preds = %entry
  %tag_.i = getelementptr inbounds i8, ptr %this, i64 224
  %11 = load i32, ptr %tag_.i, align 8
  %send_value_.i = getelementptr inbounds i8, ptr %this, i64 232
  tail call void @_ZN3net22CryptoHandshakeMessage8SetValueIjEEvjRKT_(ptr noundef nonnull align 8 dereferenceable(72) %out, i32 noundef %11, ptr noundef nonnull align 4 dereferenceable(4) %send_value_.i)
  br label %_ZNK3net15QuicFixedUint3218ToHandshakeMessageEPNS_22CryptoHandshakeMessageE.exit

_ZNK3net15QuicFixedUint3218ToHandshakeMessageEPNS_22CryptoHandshakeMessageE.exit: ; preds = %entry, %if.then.i
  %has_send_value_.i23 = getelementptr inbounds i8, ptr %this, i64 268
  %12 = load i8, ptr %has_send_value_.i23, align 4
  %13 = and i8 %12, 1
  %tobool.not.i24 = icmp eq i8 %13, 0
  br i1 %tobool.not.i24, label %_ZNK3net15QuicFixedUint3218ToHandshakeMessageEPNS_22CryptoHandshakeMessageE.exit28, label %if.then.i25

if.then.i25:                                      ; preds = %_ZNK3net15QuicFixedUint3218ToHandshakeMessageEPNS_22CryptoHandshakeMessageE.exit
  %tag_.i26 = getelementptr inbounds i8, ptr %this, i64 256
  %14 = load i32, ptr %tag_.i26, align 8
  %send_value_.i27 = getelementptr inbounds i8, ptr %this, i64 264
  tail call void @_ZN3net22CryptoHandshakeMessage8SetValueIjEEvjRKT_(ptr noundef nonnull align 8 dereferenceable(72) %out, i32 noundef %14, ptr noundef nonnull align 4 dereferenceable(4) %send_value_.i27)
  br label %_ZNK3net15QuicFixedUint3218ToHandshakeMessageEPNS_22CryptoHandshakeMessageE.exit28

_ZNK3net15QuicFixedUint3218ToHandshakeMessageEPNS_22CryptoHandshakeMessageE.exit28: ; preds = %_ZNK3net15QuicFixedUint3218ToHandshakeMessageEPNS_22CryptoHandshakeMessageE.exit, %if.then.i25
  %has_send_value_.i29 = getelementptr inbounds i8, ptr %this, i64 300
  %15 = load i8, ptr %has_send_value_.i29, align 4
  %16 = and i8 %15, 1
  %tobool.not.i30 = icmp eq i8 %16, 0
  br i1 %tobool.not.i30, label %_ZNK3net15QuicFixedUint3218ToHandshakeMessageEPNS_22CryptoHandshakeMessageE.exit34, label %if.then.i31

if.then.i31:                                      ; preds = %_ZNK3net15QuicFixedUint3218ToHandshakeMessageEPNS_22CryptoHandshakeMessageE.exit28
  %tag_.i32 = getelementptr inbounds i8, ptr %this, i64 288
  %17 = load i32, ptr %tag_.i32, align 8
  %send_value_.i33 = getelementptr inbounds i8, ptr %this, i64 296
  tail call void @_ZN3net22CryptoHandshakeMessage8SetValueIjEEvjRKT_(ptr noundef nonnull align 8 dereferenceable(72) %out, i32 noundef %17, ptr noundef nonnull align 4 dereferenceable(4) %send_value_.i33)
  br label %_ZNK3net15QuicFixedUint3218ToHandshakeMessageEPNS_22CryptoHandshakeMessageE.exit34

_ZNK3net15QuicFixedUint3218ToHandshakeMessageEPNS_22CryptoHandshakeMessageE.exit34: ; preds = %_ZNK3net15QuicFixedUint3218ToHandshakeMessageEPNS_22CryptoHandshakeMessageE.exit28, %if.then.i31
  %has_send_value_.i35 = getelementptr inbounds i8, ptr %this, i64 332
  %18 = load i8, ptr %has_send_value_.i35, align 4
  %19 = and i8 %18, 1
  %tobool.not.i36 = icmp eq i8 %19, 0
  br i1 %tobool.not.i36, label %_ZNK3net15QuicFixedUint3218ToHandshakeMessageEPNS_22CryptoHandshakeMessageE.exit40, label %if.then.i37

if.then.i37:                                      ; preds = %_ZNK3net15QuicFixedUint3218ToHandshakeMessageEPNS_22CryptoHandshakeMessageE.exit34
  %tag_.i38 = getelementptr inbounds i8, ptr %this, i64 320
  %20 = load i32, ptr %tag_.i38, align 8
  %send_value_.i39 = getelementptr inbounds i8, ptr %this, i64 328
  tail call void @_ZN3net22CryptoHandshakeMessage8SetValueIjEEvjRKT_(ptr noundef nonnull align 8 dereferenceable(72) %out, i32 noundef %20, ptr noundef nonnull align 4 dereferenceable(4) %send_value_.i39)
  br label %_ZNK3net15QuicFixedUint3218ToHandshakeMessageEPNS_22CryptoHandshakeMessageE.exit40

_ZNK3net15QuicFixedUint3218ToHandshakeMessageEPNS_22CryptoHandshakeMessageE.exit40: ; preds = %_ZNK3net15QuicFixedUint3218ToHandshakeMessageEPNS_22CryptoHandshakeMessageE.exit34, %if.then.i37
  %has_send_value_.i41 = getelementptr inbounds i8, ptr %this, i64 364
  %21 = load i8, ptr %has_send_value_.i41, align 4
  %22 = and i8 %21, 1
  %tobool.not.i42 = icmp eq i8 %22, 0
  br i1 %tobool.not.i42, label %_ZNK3net15QuicFixedUint3218ToHandshakeMessageEPNS_22CryptoHandshakeMessageE.exit46, label %if.then.i43

if.then.i43:                                      ; preds = %_ZNK3net15QuicFixedUint3218ToHandshakeMessageEPNS_22CryptoHandshakeMessageE.exit40
  %tag_.i44 = getelementptr inbounds i8, ptr %this, i64 352
  %23 = load i32, ptr %tag_.i44, align 8
  %send_value_.i45 = getelementptr inbounds i8, ptr %this, i64 360
  tail call void @_ZN3net22CryptoHandshakeMessage8SetValueIjEEvjRKT_(ptr noundef nonnull align 8 dereferenceable(72) %out, i32 noundef %23, ptr noundef nonnull align 4 dereferenceable(4) %send_value_.i45)
  br label %_ZNK3net15QuicFixedUint3218ToHandshakeMessageEPNS_22CryptoHandshakeMessageE.exit46

_ZNK3net15QuicFixedUint3218ToHandshakeMessageEPNS_22CryptoHandshakeMessageE.exit46: ; preds = %_ZNK3net15QuicFixedUint3218ToHandshakeMessageEPNS_22CryptoHandshakeMessageE.exit40, %if.then.i43
  %has_send_value_.i47 = getelementptr inbounds i8, ptr %this, i64 396
  %24 = load i8, ptr %has_send_value_.i47, align 4
  %25 = and i8 %24, 1
  %tobool.not.i48 = icmp eq i8 %25, 0
  br i1 %tobool.not.i48, label %_ZNK3net15QuicFixedUint3218ToHandshakeMessageEPNS_22CryptoHandshakeMessageE.exit52, label %if.then.i49

if.then.i49:                                      ; preds = %_ZNK3net15QuicFixedUint3218ToHandshakeMessageEPNS_22CryptoHandshakeMessageE.exit46
  %tag_.i50 = getelementptr inbounds i8, ptr %this, i64 384
  %26 = load i32, ptr %tag_.i50, align 8
  %send_value_.i51 = getelementptr inbounds i8, ptr %this, i64 392
  tail call void @_ZN3net22CryptoHandshakeMessage8SetValueIjEEvjRKT_(ptr noundef nonnull align 8 dereferenceable(72) %out, i32 noundef %26, ptr noundef nonnull align 4 dereferenceable(4) %send_value_.i51)
  br label %_ZNK3net15QuicFixedUint3218ToHandshakeMessageEPNS_22CryptoHandshakeMessageE.exit52

_ZNK3net15QuicFixedUint3218ToHandshakeMessageEPNS_22CryptoHandshakeMessageE.exit52: ; preds = %_ZNK3net15QuicFixedUint3218ToHandshakeMessageEPNS_22CryptoHandshakeMessageE.exit46, %if.then.i49
  %has_send_value_.i53 = getelementptr inbounds i8, ptr %this, i64 460
  %27 = load i8, ptr %has_send_value_.i53, align 4
  %28 = and i8 %27, 1
  %tobool.not.i54 = icmp eq i8 %28, 0
  br i1 %tobool.not.i54, label %_ZNK3net15QuicFixedUint3218ToHandshakeMessageEPNS_22CryptoHandshakeMessageE.exit58, label %if.then.i55

if.then.i55:                                      ; preds = %_ZNK3net15QuicFixedUint3218ToHandshakeMessageEPNS_22CryptoHandshakeMessageE.exit52
  %tag_.i56 = getelementptr inbounds i8, ptr %this, i64 448
  %29 = load i32, ptr %tag_.i56, align 8
  %send_value_.i57 = getelementptr inbounds i8, ptr %this, i64 456
  tail call void @_ZN3net22CryptoHandshakeMessage8SetValueIjEEvjRKT_(ptr noundef nonnull align 8 dereferenceable(72) %out, i32 noundef %29, ptr noundef nonnull align 4 dereferenceable(4) %send_value_.i57)
  br label %_ZNK3net15QuicFixedUint3218ToHandshakeMessageEPNS_22CryptoHandshakeMessageE.exit58

_ZNK3net15QuicFixedUint3218ToHandshakeMessageEPNS_22CryptoHandshakeMessageE.exit58: ; preds = %_ZNK3net15QuicFixedUint3218ToHandshakeMessageEPNS_22CryptoHandshakeMessageE.exit52, %if.then.i55
  %has_send_values_.i = getelementptr inbounds i8, ptr %this, i64 80
  %30 = load i8, ptr %has_send_values_.i, align 8
  %31 = and i8 %30, 1
  %tobool.not.i59 = icmp eq i8 %31, 0
  br i1 %tobool.not.i59, label %_ZNK3net18QuicFixedTagVector18ToHandshakeMessageEPNS_22CryptoHandshakeMessageE.exit, label %if.then.i60

if.then.i60:                                      ; preds = %_ZNK3net15QuicFixedUint3218ToHandshakeMessageEPNS_22CryptoHandshakeMessageE.exit58
  %tag_.i61 = getelementptr inbounds i8, ptr %this, i64 48
  %32 = load i32, ptr %tag_.i61, align 8
  %send_values_.i = getelementptr inbounds i8, ptr %this, i64 56
  tail call void @_ZN3net22CryptoHandshakeMessage9SetVectorIjEEvjRKSt6vectorIT_SaIS3_EE(ptr noundef nonnull align 8 dereferenceable(72) %out, i32 noundef %32, ptr noundef nonnull align 8 dereferenceable(24) %send_values_.i)
  br label %_ZNK3net18QuicFixedTagVector18ToHandshakeMessageEPNS_22CryptoHandshakeMessageE.exit

_ZNK3net18QuicFixedTagVector18ToHandshakeMessageEPNS_22CryptoHandshakeMessageE.exit: ; preds = %_ZNK3net15QuicFixedUint3218ToHandshakeMessageEPNS_22CryptoHandshakeMessageE.exit58, %if.then.i60
  %alternate_server_address_ = getelementptr inbounds i8, ptr %this, i64 472
  tail call void @_ZNK3net19QuicFixedIPEndPoint18ToHandshakeMessageEPNS_22CryptoHandshakeMessageE(ptr noundef nonnull align 8 dereferenceable(89) %alternate_server_address_, ptr noundef nonnull %out)
  %has_send_value_.i62 = getelementptr inbounds i8, ptr %this, i64 588
  %33 = load i8, ptr %has_send_value_.i62, align 4
  %34 = and i8 %33, 1
  %tobool.not.i63 = icmp eq i8 %34, 0
  br i1 %tobool.not.i63, label %_ZNK3net15QuicFixedUint3218ToHandshakeMessageEPNS_22CryptoHandshakeMessageE.exit67, label %if.then.i64

if.then.i64:                                      ; preds = %_ZNK3net18QuicFixedTagVector18ToHandshakeMessageEPNS_22CryptoHandshakeMessageE.exit
  %tag_.i65 = getelementptr inbounds i8, ptr %this, i64 576
  %35 = load i32, ptr %tag_.i65, align 8
  %send_value_.i66 = getelementptr inbounds i8, ptr %this, i64 584
  tail call void @_ZN3net22CryptoHandshakeMessage8SetValueIjEEvjRKT_(ptr noundef nonnull align 8 dereferenceable(72) %out, i32 noundef %35, ptr noundef nonnull align 4 dereferenceable(4) %send_value_.i66)
  br label %_ZNK3net15QuicFixedUint3218ToHandshakeMessageEPNS_22CryptoHandshakeMessageE.exit67

_ZNK3net15QuicFixedUint3218ToHandshakeMessageEPNS_22CryptoHandshakeMessageE.exit67: ; preds = %_ZNK3net18QuicFixedTagVector18ToHandshakeMessageEPNS_22CryptoHandshakeMessageE.exit, %if.then.i64
  ret void
}